; Function Attrs: mustprogress nounwind uwtable
define hidden void @_ZN4cvc58internal28TypeCheckingExceptionPrivateD0Ev(ptr noundef nonnull align 8 dereferenceable(48) %this) unnamed_addr #6 align 2 personality ptr @__gxx_personality_v0 {
entry:
  store ptr getelementptr inbounds ({ [6 x ptr] }, ptr @_ZTVN4cvc58internal28TypeCheckingExceptionPrivateE, i64 0, i32 0, i64 2), ptr %this, align 8
  %d_node.i = getelementptr inbounds i8, ptr %this, i64 40
  %0 = load ptr, ptr %d_node.i, align 8
  %isnull.i = icmp eq ptr %0, null
  br i1 %isnull.i, label %_ZN4cvc58internal28TypeCheckingExceptionPrivateD2Ev.exit, label %delete.notnull.i

delete.notnull.i:                                 ; preds = %entry
  %1 = load ptr, ptr %0, align 8
  %bf.load.i.i.i = load i64, ptr %1, align 8
  %2 = and i64 %bf.load.i.i.i, 1152920405095219200
  %cmp.not.i.i.i = icmp eq i64 %2, 1152920405095219200
  br i1 %cmp.not.i.i.i, label %_ZN4cvc58internal12NodeTemplateILb1EED2Ev.exit.i, label %if.then.i.i.i

if.then.i.i.i:                                    ; preds = %delete.notnull.i
  %bf.value.i.i.i = add i64 %bf.load.i.i.i, 1152920405095219200
  %bf.shl.i.i.i = and i64 %bf.value.i.i.i, 1152920405095219200
  %bf.clear7.i.i.i = and i64 %bf.load.i.i.i, -1152920405095219201
  %bf.set.i.i.i = or disjoint i64 %bf.shl.i.i.i, %bf.clear7.i.i.i
  store i64 %bf.set.i.i.i, ptr %1, align 8
  %cmp12.i.i.i = icmp eq i64 %bf.shl.i.i.i, 0
  br i1 %cmp12.i.i.i, label %if.then13.i.i.i, label %_ZN4cvc58internal12NodeTemplateILb1EED2Ev.exit.i

if.then13.i.i.i:                                  ; preds = %if.then.i.i.i
  invoke void @_ZN4cvc58internal4expr9NodeValue15markForDeletionEv(ptr noundef nonnull align 8 dereferenceable(16) %1)
          to label %_ZN4cvc58internal12NodeTemplateILb1EED2Ev.exit.i unwind label %terminate.lpad.i.i

terminate.lpad.i.i:                               ; preds = %if.then13.i.i.i
  %3 = landingpad { ptr, i32 }
          catch ptr null
  %4 = extractvalue { ptr, i32 } %3, 0
  tail call void @__clang_call_terminate(ptr %4) #18
  unreachable

_ZN4cvc58internal12NodeTemplateILb1EED2Ev.exit.i: ; preds = %if.then13.i.i.i, %if.then.i.i.i, %delete.notnull.i
  tail call void @_ZdlPv(ptr noundef nonnull %0) #17
  br label %_ZN4cvc58internal28TypeCheckingExceptionPrivateD2Ev.exit

_ZN4cvc58internal28TypeCheckingExceptionPrivateD2Ev.exit: ; preds = %entry, %_ZN4cvc58internal12NodeTemplateILb1EED2Ev.exit.i
  store ptr getelementptr inbounds ({ [6 x ptr] }, ptr @_ZTVN4cvc58internal9ExceptionE, i64 0, i32 0, i64 2), ptr %this, align 8
  %d_msg.i.i = getelementptr inbounds i8, ptr %this, i64 8
  tail call void @_ZNSt7__cxx1112basic_stringIcSt11char_traitsIcESaIcEED1Ev(ptr noundef nonnull align 8 dereferenceable(32) %d_msg.i.i) #15
  tail call void @_ZNSt9exceptionD2Ev(ptr noundef nonnull align 8 dereferenceable(8) %this) #15
  tail call void @_ZdlPv(ptr noundef nonnull %this) #17
  ret void
}